target datalayout = "e-m:e-p270:32:32-p271:32:32-p272:64:64-i64:64-i128:128-f80:128-n8:16:32:64-S128"
target triple = "x86_64-pc-linux-gnu"

%"union.pxrInternal_v0_24__pxrReserved__::pxr_half::half::uif" = type { i32 }
%"class.pxrInternal_v0_24__pxrReserved__::Vt_ArrayBase" = type { %"struct.pxrInternal_v0_24__pxrReserved__::Vt_ShapeData", ptr }
%"struct.pxrInternal_v0_24__pxrReserved__::Vt_ShapeData" = type { i64, [3 x i32] }
%"class.pxrInternal_v0_24__pxrReserved__::VtArray.106" = type { %"class.pxrInternal_v0_24__pxrReserved__::Vt_ArrayBase", ptr }
%"class.pxrInternal_v0_24__pxrReserved__::pxr_half::half" = type { i16 }
%"class.pxrInternal_v0_24__pxrReserved__::GfVec3h" = type { [3 x %"class.pxrInternal_v0_24__pxrReserved__::pxr_half::half"] }
%"class.pxrInternal_v0_24__pxrReserved__::GfQuath" = type { %"class.pxrInternal_v0_24__pxrReserved__::GfVec3h", %"class.pxrInternal_v0_24__pxrReserved__::pxr_half::half" }

@.str.81 = private unnamed_addr constant [6 x i8] c"quath\00", align 1
@_ZN32pxrInternal_v0_24__pxrReserved__8pxr_half4half5_eLutE = external constant [512 x i16], align 16

; Function Attrs: mustprogress nounwind uwtable
define linkonce_odr dso_local void @_ZN32pxrInternal_v0_24__pxrReserved__7GfQuathC2ENS_8pxr_half4halfERKNS_7GfVec3hE(ptr noundef nonnull align 2 dereferenceable(8) %0, i16 %1, ptr noundef nonnull align 2 dereferenceable(6) %2) unnamed_addr #5 comdat align 2 {
  %4 = alloca %"class.pxrInternal_v0_24__pxrReserved__::pxr_half::half", align 2
  %5 = alloca ptr, align 8
  %6 = alloca ptr, align 8
  %7 = getelementptr inbounds nuw %"class.pxrInternal_v0_24__pxrReserved__::pxr_half::half", ptr %4, i32 0, i32 0
  store i16 %1, ptr %7, align 2
  store ptr %0, ptr %5, align 8
  store ptr %2, ptr %6, align 8
  %8 = load ptr, ptr %5, align 8
  %9 = getelementptr inbounds nuw %"class.pxrInternal_v0_24__pxrReserved__::GfQuath", ptr %8, i32 0, i32 0
  %10 = load ptr, ptr %6, align 8
  call void @llvm.memcpy.p0.p0.i64(ptr align 2 %9, ptr align 2 %10, i64 6, i1 false)
  %11 = getelementptr inbounds nuw %"class.pxrInternal_v0_24__pxrReserved__::GfQuath", ptr %8, i32 0, i32 1
  call void @llvm.memcpy.p0.p0.i64(ptr align 2 %11, ptr align 2 %4, i64 2, i1 false)
  ret void
}

; Function Attrs: mustprogress nounwind uwtable
define linkonce_odr dso_local void @_ZN32pxrInternal_v0_24__pxrReserved__7GfVec3hC2ENS_8pxr_half4halfE(ptr noundef nonnull align 2 dereferenceable(6) %0, i16 %1) unnamed_addr #5 comdat align 2 {
  %3 = alloca %"class.pxrInternal_v0_24__pxrReserved__::pxr_half::half", align 2
  %4 = alloca ptr, align 8
  %5 = getelementptr inbounds nuw %"class.pxrInternal_v0_24__pxrReserved__::pxr_half::half", ptr %3, i32 0, i32 0
  store i16 %1, ptr %5, align 2
  store ptr %0, ptr %4, align 8
  %6 = load ptr, ptr %4, align 8
  %7 = getelementptr inbounds nuw %"class.pxrInternal_v0_24__pxrReserved__::GfVec3h", ptr %6, i32 0, i32 0
  call void @llvm.memcpy.p0.p0.i64(ptr align 2 %7, ptr align 2 %3, i64 2, i1 false)
  %8 = getelementptr inbounds %"class.pxrInternal_v0_24__pxrReserved__::pxr_half::half", ptr %7, i64 1
  call void @llvm.memcpy.p0.p0.i64(ptr align 2 %8, ptr align 2 %3, i64 2, i1 false)
  %9 = getelementptr inbounds %"class.pxrInternal_v0_24__pxrReserved__::pxr_half::half", ptr %7, i64 2
  call void @llvm.memcpy.p0.p0.i64(ptr align 2 %9, ptr align 2 %3, i64 2, i1 false)
  ret void
}

; Function Attrs: mustprogress uwtable
define linkonce_odr dso_local void @_ZN32pxrInternal_v0_24__pxrReserved__8pxr_half4halfC2Ef(ptr noundef nonnull align 2 dereferenceable(2) %0, float noundef %1) unnamed_addr #4 comdat align 2 {
  %3 = alloca ptr, align 8
  %4 = alloca float, align 4
  %5 = alloca %"union.pxrInternal_v0_24__pxrReserved__::pxr_half::half::uif", align 4
  %6 = alloca i32, align 4
  %7 = alloca i32, align 4
  store ptr %0, ptr %3, align 8
  store float %1, ptr %4, align 4
  %8 = load ptr, ptr %3, align 8
  %9 = load float, ptr %4, align 4
  store float %9, ptr %5, align 4
  %10 = load float, ptr %4, align 4
  %11 = fcmp oeq float %10, 0.000000e+00
  br i1 %11, label %12, label %17

12:                                               ; preds = %2
  %13 = load i32, ptr %5, align 4
  %14 = lshr i32 %13, 16
  %15 = trunc i32 %14 to i16
  %16 = getelementptr inbounds nuw %"class.pxrInternal_v0_24__pxrReserved__::pxr_half::half", ptr %8, i32 0, i32 0
  store i16 %15, ptr %16, align 2
  br label %47

17:                                               ; preds = %2
  %18 = load i32, ptr %5, align 4
  %19 = lshr i32 %18, 23
  %20 = and i32 %19, 511
  store i32 %20, ptr %6, align 4
  %21 = load i32, ptr %6, align 4
  %22 = sext i32 %21 to i64
  %23 = getelementptr inbounds [512 x i16], ptr @_ZN32pxrInternal_v0_24__pxrReserved__8pxr_half4half5_eLutE, i64 0, i64 %22
  %24 = load i16, ptr %23, align 2
  %25 = zext i16 %24 to i32
  store i32 %25, ptr %6, align 4
  %26 = load i32, ptr %6, align 4
  %27 = icmp ne i32 %26, 0
  br i1 %27, label %28, label %42

28:                                               ; preds = %17
  %29 = load i32, ptr %5, align 4
  %30 = and i32 %29, 8388607
  store i32 %30, ptr %7, align 4
  %31 = load i32, ptr %6, align 4
  %32 = load i32, ptr %7, align 4
  %33 = add nsw i32 %32, 4095
  %34 = load i32, ptr %7, align 4
  %35 = ashr i32 %34, 13
  %36 = and i32 %35, 1
  %37 = add nsw i32 %33, %36
  %38 = ashr i32 %37, 13
  %39 = add nsw i32 %31, %38
  %40 = trunc i32 %39 to i16
  %41 = getelementptr inbounds nuw %"class.pxrInternal_v0_24__pxrReserved__::pxr_half::half", ptr %8, i32 0, i32 0
  store i16 %40, ptr %41, align 2
  br label %46

42:                                               ; preds = %17
  %43 = load i32, ptr %5, align 4
  %44 = call noundef signext i16 @_ZN32pxrInternal_v0_24__pxrReserved__8pxr_half4half7convertEi(i32 noundef %43)
  %45 = getelementptr inbounds nuw %"class.pxrInternal_v0_24__pxrReserved__::pxr_half::half", ptr %8, i32 0, i32 0
  store i16 %44, ptr %45, align 2
  br label %46

46:                                               ; preds = %42, %28
  br label %47

47:                                               ; preds = %46, %12
  ret void
}

; Function Attrs: mustprogress uwtable
define dso_local void @_Z7GetInfoIN32pxrInternal_v0_24__pxrReserved__7GfQuathEEvPNS0_7VtArrayIT_EEPNSt7__cxx1112basic_stringIcSt11char_traitsIcESaIcEEE(ptr noundef %0, ptr noundef %1) #4 personality ptr @__gxx_personality_v0 {
  %3 = alloca ptr, align 8
  %4 = alloca ptr, align 8
  %5 = alloca %"class.pxrInternal_v0_24__pxrReserved__::VtArray.106", align 8
  %6 = alloca ptr, align 8
  %7 = alloca i32, align 4
  %8 = alloca %"class.pxrInternal_v0_24__pxrReserved__::GfQuath", align 2
  %9 = alloca %"class.pxrInternal_v0_24__pxrReserved__::pxr_half::half", align 2
  %10 = alloca %"class.pxrInternal_v0_24__pxrReserved__::GfVec3h", align 2
  %11 = alloca %"class.pxrInternal_v0_24__pxrReserved__::pxr_half::half", align 2
  %12 = alloca %"class.pxrInternal_v0_24__pxrReserved__::GfQuath", align 2
  %13 = alloca %"class.pxrInternal_v0_24__pxrReserved__::pxr_half::half", align 2
  %14 = alloca %"class.pxrInternal_v0_24__pxrReserved__::GfVec3h", align 2
  %15 = alloca %"class.pxrInternal_v0_24__pxrReserved__::pxr_half::half", align 2
  %16 = alloca %"class.pxrInternal_v0_24__pxrReserved__::GfQuath", align 2
  %17 = alloca %"class.pxrInternal_v0_24__pxrReserved__::pxr_half::half", align 2
  %18 = alloca %"class.pxrInternal_v0_24__pxrReserved__::GfVec3h", align 2
  %19 = alloca %"class.pxrInternal_v0_24__pxrReserved__::pxr_half::half", align 2
  store ptr %0, ptr %3, align 8
  store ptr %1, ptr %4, align 8
  %20 = load ptr, ptr %4, align 8
  %21 = call noundef nonnull align 8 dereferenceable(32) ptr @_ZNSt7__cxx1112basic_stringIcSt11char_traitsIcESaIcEEaSEPKc(ptr noundef nonnull align 8 dereferenceable(32) %20, ptr noundef @.str.81)
  call void @_ZN32pxrInternal_v0_24__pxrReserved__7VtArrayINS_7GfQuathEEC1Em(ptr noundef nonnull align 8 dereferenceable(40) %5, i64 noundef 3)
  %22 = load ptr, ptr %3, align 8
  %23 = invoke noundef nonnull align 8 dereferenceable(40) ptr @_ZN32pxrInternal_v0_24__pxrReserved__7VtArrayINS_7GfQuathEEaSEOS2_(ptr noundef nonnull align 8 dereferenceable(40) %22, ptr noundef nonnull align 8 dereferenceable(40) %5)
          to label %24 unwind label %43

24:                                               ; preds = %2
  call void @_ZN32pxrInternal_v0_24__pxrReserved__7VtArrayINS_7GfQuathEED1Ev(ptr noundef nonnull align 8 dereferenceable(40) %5) #3
  call void @_ZN32pxrInternal_v0_24__pxrReserved__8pxr_half4halfC2Ef(ptr noundef nonnull align 2 dereferenceable(2) %9, float noundef 1.000000e+00)
  call void @_ZN32pxrInternal_v0_24__pxrReserved__8pxr_half4halfC2Ef(ptr noundef nonnull align 2 dereferenceable(2) %11, float noundef 1.000000e+00)
  %25 = getelementptr inbounds nuw %"class.pxrInternal_v0_24__pxrReserved__::pxr_half::half", ptr %11, i32 0, i32 0
  %26 = load i16, ptr %25, align 2
  call void @_ZN32pxrInternal_v0_24__pxrReserved__7GfVec3hC2ENS_8pxr_half4halfE(ptr noundef nonnull align 2 dereferenceable(6) %10, i16 %26)
  %27 = getelementptr inbounds nuw %"class.pxrInternal_v0_24__pxrReserved__::pxr_half::half", ptr %9, i32 0, i32 0
  %28 = load i16, ptr %27, align 2
  call void @_ZN32pxrInternal_v0_24__pxrReserved__7GfQuathC2ENS_8pxr_half4halfERKNS_7GfVec3hE(ptr noundef nonnull align 2 dereferenceable(8) %8, i16 %28, ptr noundef nonnull align 2 dereferenceable(6) %10)
  %29 = load ptr, ptr %3, align 8
  %30 = call noundef nonnull align 2 dereferenceable(8) ptr @_ZN32pxrInternal_v0_24__pxrReserved__7VtArrayINS_7GfQuathEEixEm(ptr noundef nonnull align 8 dereferenceable(40) %29, i64 noundef 0)
  call void @llvm.memcpy.p0.p0.i64(ptr align 2 %30, ptr align 2 %8, i64 8, i1 false)
  call void @_ZN32pxrInternal_v0_24__pxrReserved__8pxr_half4halfC2Ef(ptr noundef nonnull align 2 dereferenceable(2) %13, float noundef 2.000000e+00)
  call void @_ZN32pxrInternal_v0_24__pxrReserved__8pxr_half4halfC2Ef(ptr noundef nonnull align 2 dereferenceable(2) %15, float noundef 2.000000e+00)
  %31 = getelementptr inbounds nuw %"class.pxrInternal_v0_24__pxrReserved__::pxr_half::half", ptr %15, i32 0, i32 0
  %32 = load i16, ptr %31, align 2
  call void @_ZN32pxrInternal_v0_24__pxrReserved__7GfVec3hC2ENS_8pxr_half4halfE(ptr noundef nonnull align 2 dereferenceable(6) %14, i16 %32)
  %33 = getelementptr inbounds nuw %"class.pxrInternal_v0_24__pxrReserved__::pxr_half::half", ptr %13, i32 0, i32 0
  %34 = load i16, ptr %33, align 2
  call void @_ZN32pxrInternal_v0_24__pxrReserved__7GfQuathC2ENS_8pxr_half4halfERKNS_7GfVec3hE(ptr noundef nonnull align 2 dereferenceable(8) %12, i16 %34, ptr noundef nonnull align 2 dereferenceable(6) %14)
  %35 = load ptr, ptr %3, align 8
  %36 = call noundef nonnull align 2 dereferenceable(8) ptr @_ZN32pxrInternal_v0_24__pxrReserved__7VtArrayINS_7GfQuathEEixEm(ptr noundef nonnull align 8 dereferenceable(40) %35, i64 noundef 1)
  call void @llvm.memcpy.p0.p0.i64(ptr align 2 %36, ptr align 2 %12, i64 8, i1 false)
  call void @_ZN32pxrInternal_v0_24__pxrReserved__8pxr_half4halfC2Ef(ptr noundef nonnull align 2 dereferenceable(2) %17, float noundef 3.000000e+00)
  call void @_ZN32pxrInternal_v0_24__pxrReserved__8pxr_half4halfC2Ef(ptr noundef nonnull align 2 dereferenceable(2) %19, float noundef 3.000000e+00)
  %37 = getelementptr inbounds nuw %"class.pxrInternal_v0_24__pxrReserved__::pxr_half::half", ptr %19, i32 0, i32 0
  %38 = load i16, ptr %37, align 2
  call void @_ZN32pxrInternal_v0_24__pxrReserved__7GfVec3hC2ENS_8pxr_half4halfE(ptr noundef nonnull align 2 dereferenceable(6) %18, i16 %38)
  %39 = getelementptr inbounds nuw %"class.pxrInternal_v0_24__pxrReserved__::pxr_half::half", ptr %17, i32 0, i32 0
  %40 = load i16, ptr %39, align 2
  call void @_ZN32pxrInternal_v0_24__pxrReserved__7GfQuathC2ENS_8pxr_half4halfERKNS_7GfVec3hE(ptr noundef nonnull align 2 dereferenceable(8) %16, i16 %40, ptr noundef nonnull align 2 dereferenceable(6) %18)
  %41 = load ptr, ptr %3, align 8
  %42 = call noundef nonnull align 2 dereferenceable(8) ptr @_ZN32pxrInternal_v0_24__pxrReserved__7VtArrayINS_7GfQuathEEixEm(ptr noundef nonnull align 8 dereferenceable(40) %41, i64 noundef 2)
  call void @llvm.memcpy.p0.p0.i64(ptr align 2 %42, ptr align 2 %16, i64 8, i1 false)
  ret void

43:                                               ; preds = %2
  %44 = landingpad { ptr, i32 }
          cleanup
  %45 = extractvalue { ptr, i32 } %44, 0
  store ptr %45, ptr %6, align 8
  %46 = extractvalue { ptr, i32 } %44, 1
  store i32 %46, ptr %7, align 4
  call void @_ZN32pxrInternal_v0_24__pxrReserved__7VtArrayINS_7GfQuathEED1Ev(ptr noundef nonnull align 8 dereferenceable(40) %5) #3
  br label %47

47:                                               ; preds = %43
  %48 = load ptr, ptr %6, align 8
  %49 = load i32, ptr %7, align 4
  %50 = insertvalue { ptr, i32 } poison, ptr %48, 0
  %51 = insertvalue { ptr, i32 } %50, i32 %49, 1
  resume { ptr, i32 } %51
}