; Function Attrs: mustprogress uwtable
define dso_local void @_Z7GetInfoIN32pxrInternal_v0_24__pxrReserved__7GfQuathEEvPNS0_7VtArrayIT_EEPNSt7__cxx1112basic_stringIcSt11char_traitsIcESaIcEEE(ptr noundef %0, ptr noundef nonnull %1) local_unnamed_addr #3 personality ptr @__gxx_personality_v0 {
  %3 = alloca %"class.pxrInternal_v0_24__pxrReserved__::VtArray.106", align 8
  %4 = tail call noundef nonnull align 8 dereferenceable(32) ptr @_ZNSt7__cxx1112basic_stringIcSt11char_traitsIcESaIcEEaSEPKc(ptr noundef nonnull align 8 dereferenceable(32) %1, ptr noundef nonnull @.str.81)
  call void @_ZN32pxrInternal_v0_24__pxrReserved__7VtArrayINS_7GfQuathEEC1Em(ptr noundef nonnull align 8 dereferenceable(40) %3, i64 noundef 3)
  %5 = invoke noundef nonnull align 8 dereferenceable(40) ptr @_ZN32pxrInternal_v0_24__pxrReserved__7VtArrayINS_7GfQuathEEaSEOS2_(ptr noundef nonnull align 8 dereferenceable(40) %0, ptr noundef nonnull align 8 dereferenceable(40) %3)
          to label %6 unwind label %23

6:                                                ; preds = %2
  call void @_ZN32pxrInternal_v0_24__pxrReserved__7VtArrayINS_7GfQuathEED1Ev(ptr noundef nonnull align 8 dereferenceable(40) %3) #25
  %7 = load i16, ptr getelementptr inbounds (i8, ptr @_ZN32pxrInternal_v0_24__pxrReserved__8pxr_half4half5_eLutE, i64 254), align 2
  %.not.i = icmp eq i16 %7, 0
  br i1 %.not.i, label %8, label %_ZN32pxrInternal_v0_24__pxrReserved__8pxr_half4halfC2Ef.exit8

8:                                                ; preds = %6
  %9 = call noundef signext i16 @_ZN32pxrInternal_v0_24__pxrReserved__8pxr_half4half7convertEi(i32 noundef 1065353216)
  %10 = call noundef signext i16 @_ZN32pxrInternal_v0_24__pxrReserved__8pxr_half4half7convertEi(i32 noundef 1065353216)
  br label %_ZN32pxrInternal_v0_24__pxrReserved__8pxr_half4halfC2Ef.exit8

_ZN32pxrInternal_v0_24__pxrReserved__8pxr_half4halfC2Ef.exit8: ; preds = %6, %8
  %.sink.i45 = phi i16 [ %9, %8 ], [ %7, %6 ]
  %.sink.i7 = phi i16 [ %10, %8 ], [ %7, %6 ]
  %11 = call noundef nonnull align 2 dereferenceable(8) ptr @_ZN32pxrInternal_v0_24__pxrReserved__7VtArrayINS_7GfQuathEEixEm(ptr noundef nonnull align 8 dereferenceable(40) %0, i64 noundef 0)
  %.sroa.443.0.insert.ext = zext i16 %.sink.i45 to i64
  %.sroa.443.0.insert.shift = shl nuw i64 %.sroa.443.0.insert.ext, 48
  %.sroa.342.0.insert.ext = zext i16 %.sink.i7 to i64
  %.sroa.342.0.insert.shift = shl nuw nsw i64 %.sroa.342.0.insert.ext, 32
  %.sroa.342.0.insert.insert = or disjoint i64 %.sroa.342.0.insert.shift, %.sroa.443.0.insert.shift
  %.sroa.241.0.insert.shift = shl nuw nsw i64 %.sroa.342.0.insert.ext, 16
  %.sroa.241.0.insert.insert = or disjoint i64 %.sroa.342.0.insert.insert, %.sroa.241.0.insert.shift
  %.sroa.040.0.insert.insert = or disjoint i64 %.sroa.241.0.insert.insert, %.sroa.342.0.insert.ext
  store i64 %.sroa.040.0.insert.insert, ptr %11, align 2
  %12 = load i16, ptr getelementptr inbounds (i8, ptr @_ZN32pxrInternal_v0_24__pxrReserved__8pxr_half4half5_eLutE, i64 256), align 16
  %.not.i9 = icmp eq i16 %12, 0
  br i1 %.not.i9, label %_ZN32pxrInternal_v0_24__pxrReserved__8pxr_half4halfC2Ef.exit14, label %.critedge

_ZN32pxrInternal_v0_24__pxrReserved__8pxr_half4halfC2Ef.exit14: ; preds = %_ZN32pxrInternal_v0_24__pxrReserved__8pxr_half4halfC2Ef.exit8
  %13 = call noundef signext i16 @_ZN32pxrInternal_v0_24__pxrReserved__8pxr_half4half7convertEi(i32 noundef 1073741824)
  %14 = call noundef signext i16 @_ZN32pxrInternal_v0_24__pxrReserved__8pxr_half4half7convertEi(i32 noundef 1073741824)
  %15 = call noundef nonnull align 2 dereferenceable(8) ptr @_ZN32pxrInternal_v0_24__pxrReserved__7VtArrayINS_7GfQuathEEixEm(ptr noundef nonnull align 8 dereferenceable(40) %0, i64 noundef 1)
  %.sroa.434.0.insert.ext = zext i16 %13 to i64
  %.sroa.434.0.insert.shift = shl nuw i64 %.sroa.434.0.insert.ext, 48
  %.sroa.333.0.insert.ext = zext i16 %14 to i64
  %.sroa.333.0.insert.shift = shl nuw nsw i64 %.sroa.333.0.insert.ext, 32
  %.sroa.333.0.insert.insert = or disjoint i64 %.sroa.333.0.insert.shift, %.sroa.434.0.insert.shift
  %.sroa.232.0.insert.shift = shl nuw nsw i64 %.sroa.333.0.insert.ext, 16
  %.sroa.232.0.insert.insert = or disjoint i64 %.sroa.333.0.insert.insert, %.sroa.232.0.insert.shift
  %.sroa.031.0.insert.insert = or disjoint i64 %.sroa.232.0.insert.insert, %.sroa.333.0.insert.ext
  store i64 %.sroa.031.0.insert.insert, ptr %15, align 2
  %16 = call noundef signext i16 @_ZN32pxrInternal_v0_24__pxrReserved__8pxr_half4half7convertEi(i32 noundef 1077936128)
  %17 = call noundef signext i16 @_ZN32pxrInternal_v0_24__pxrReserved__8pxr_half4half7convertEi(i32 noundef 1077936128)
  br label %_ZN32pxrInternal_v0_24__pxrReserved__8pxr_half4halfC2Ef.exit20

.critedge:                                        ; preds = %_ZN32pxrInternal_v0_24__pxrReserved__8pxr_half4halfC2Ef.exit8
  %18 = call noundef nonnull align 2 dereferenceable(8) ptr @_ZN32pxrInternal_v0_24__pxrReserved__7VtArrayINS_7GfQuathEEixEm(ptr noundef nonnull align 8 dereferenceable(40) %0, i64 noundef 1)
  %.sroa.434.0.insert.ext.c = zext i16 %12 to i64
  %.sroa.434.0.insert.shift.c = shl nuw i64 %.sroa.434.0.insert.ext.c, 48
  %.sroa.333.0.insert.shift.c = shl nuw nsw i64 %.sroa.434.0.insert.ext.c, 32
  %.sroa.232.0.insert.shift.c = shl nuw nsw i64 %.sroa.434.0.insert.ext.c, 16
  %19 = or disjoint i64 %.sroa.333.0.insert.shift.c, %.sroa.434.0.insert.shift.c
  %20 = or disjoint i64 %19, %.sroa.232.0.insert.shift.c
  %.sroa.031.0.insert.insert.c = or disjoint i64 %20, %.sroa.434.0.insert.ext.c
  store i64 %.sroa.031.0.insert.insert.c, ptr %18, align 2
  %21 = add i16 %12, 512
  br label %_ZN32pxrInternal_v0_24__pxrReserved__8pxr_half4halfC2Ef.exit20

_ZN32pxrInternal_v0_24__pxrReserved__8pxr_half4halfC2Ef.exit20: ; preds = %.critedge, %_ZN32pxrInternal_v0_24__pxrReserved__8pxr_half4halfC2Ef.exit14
  %.sink.i1651 = phi i16 [ %21, %.critedge ], [ %16, %_ZN32pxrInternal_v0_24__pxrReserved__8pxr_half4halfC2Ef.exit14 ]
  %.sink.i19 = phi i16 [ %21, %.critedge ], [ %17, %_ZN32pxrInternal_v0_24__pxrReserved__8pxr_half4halfC2Ef.exit14 ]
  %22 = call noundef nonnull align 2 dereferenceable(8) ptr @_ZN32pxrInternal_v0_24__pxrReserved__7VtArrayINS_7GfQuathEEixEm(ptr noundef nonnull align 8 dereferenceable(40) %0, i64 noundef 2)
  %.sroa.4.0.insert.ext = zext i16 %.sink.i1651 to i64
  %.sroa.4.0.insert.shift = shl nuw i64 %.sroa.4.0.insert.ext, 48
  %.sroa.325.0.insert.ext = zext i16 %.sink.i19 to i64
  %.sroa.325.0.insert.shift = shl nuw nsw i64 %.sroa.325.0.insert.ext, 32
  %.sroa.325.0.insert.insert = or disjoint i64 %.sroa.325.0.insert.shift, %.sroa.4.0.insert.shift
  %.sroa.224.0.insert.shift = shl nuw nsw i64 %.sroa.325.0.insert.ext, 16
  %.sroa.224.0.insert.insert = or disjoint i64 %.sroa.325.0.insert.insert, %.sroa.224.0.insert.shift
  %.sroa.023.0.insert.insert = or disjoint i64 %.sroa.224.0.insert.insert, %.sroa.325.0.insert.ext
  store i64 %.sroa.023.0.insert.insert, ptr %22, align 2
  ret void

23:                                               ; preds = %2
  %24 = landingpad { ptr, i32 }
          cleanup
  call void @_ZN32pxrInternal_v0_24__pxrReserved__7VtArrayINS_7GfQuathEED1Ev(ptr noundef nonnull align 8 dereferenceable(40) %3) #25
  resume { ptr, i32 } %24
}